target datalayout = "e-m:e-p270:32:32-p271:32:32-p272:64:64-i64:64-i128:128-f80:128-n8:16:32:64-S128"
target triple = "x86_64-pc-linux-gnu"

%struct.buffer_s = type { ptr, i64 }
%struct.ZSTD_customMem = type { ptr, ptr, ptr }
%union.pthread_mutex_t = type { %struct.__pthread_mutex_s }
%struct.__pthread_mutex_s = type { i32, i32, i32, i32, i32, i16, i16, %struct.__pthread_internal_list }
%struct.__pthread_internal_list = type { ptr, ptr }
%struct.ZSTDMT_bufferPool_s = type { %union.pthread_mutex_t, i64, i32, i32, %struct.ZSTD_customMem, ptr }

@g_nullBuffer = internal constant %struct.buffer_s zeroinitializer, align 8

; Function Attrs: inlinehint nounwind uwtable
define internal ptr @ZSTD_customMalloc(i64 noundef %0, ptr noundef byval(%struct.ZSTD_customMem) align 8 %1) #1 {
  %3 = alloca ptr, align 8
  %4 = alloca i64, align 8
  store i64 %0, ptr %4, align 8, !tbaa !45
  %5 = getelementptr inbounds nuw %struct.ZSTD_customMem, ptr %1, i32 0, i32 0
  %6 = load ptr, ptr %5, align 8, !tbaa !10
  %7 = icmp ne ptr %6, null
  br i1 %7, label %8, label %15

8:                                                ; preds = %2
  %9 = getelementptr inbounds nuw %struct.ZSTD_customMem, ptr %1, i32 0, i32 0
  %10 = load ptr, ptr %9, align 8, !tbaa !10
  %11 = getelementptr inbounds nuw %struct.ZSTD_customMem, ptr %1, i32 0, i32 2
  %12 = load ptr, ptr %11, align 8, !tbaa !72
  %13 = load i64, ptr %4, align 8, !tbaa !45
  %14 = call ptr %10(ptr noundef %12, i64 noundef %13)
  store ptr %14, ptr %3, align 8
  br label %18

15:                                               ; preds = %2
  %16 = load i64, ptr %4, align 8, !tbaa !45
  %17 = call noalias ptr @malloc(i64 noundef %16) #12
  store ptr %17, ptr %3, align 8
  br label %18

18:                                               ; preds = %15, %8
  %19 = load ptr, ptr %3, align 8
  ret ptr %19
}

; Function Attrs: inlinehint nounwind uwtable
define internal void @ZSTD_customFree(ptr noundef %0, ptr noundef byval(%struct.ZSTD_customMem) align 8 %1) #1 {
  %3 = alloca ptr, align 8
  store ptr %0, ptr %3, align 8, !tbaa !16
  %4 = load ptr, ptr %3, align 8, !tbaa !16
  %5 = icmp ne ptr %4, null
  br i1 %5, label %6, label %19

6:                                                ; preds = %2
  %7 = getelementptr inbounds nuw %struct.ZSTD_customMem, ptr %1, i32 0, i32 1
  %8 = load ptr, ptr %7, align 8, !tbaa !12
  %9 = icmp ne ptr %8, null
  br i1 %9, label %10, label %16

10:                                               ; preds = %6
  %11 = getelementptr inbounds nuw %struct.ZSTD_customMem, ptr %1, i32 0, i32 1
  %12 = load ptr, ptr %11, align 8, !tbaa !12
  %13 = getelementptr inbounds nuw %struct.ZSTD_customMem, ptr %1, i32 0, i32 2
  %14 = load ptr, ptr %13, align 8, !tbaa !72
  %15 = load ptr, ptr %3, align 8, !tbaa !16
  call void %12(ptr noundef %14, ptr noundef %15)
  br label %18

16:                                               ; preds = %6
  %17 = load ptr, ptr %3, align 8, !tbaa !16
  call void @free(ptr noundef %17) #11
  br label %18

18:                                               ; preds = %16, %10
  br label %19

19:                                               ; preds = %18, %2
  ret void
}

; Function Attrs: nounwind uwtable
define internal { ptr, i64 } @ZSTDMT_getBuffer(ptr noundef %0) #0 {
  %2 = alloca %struct.buffer_s, align 8
  %3 = alloca ptr, align 8
  %4 = alloca i64, align 8
  %5 = alloca i64, align 8
  %6 = alloca i32, align 4
  %7 = alloca ptr, align 8
  store ptr %0, ptr %3, align 8, !tbaa !56
  call void @llvm.lifetime.start.p0(i64 8, ptr %4) #11
  %8 = load ptr, ptr %3, align 8, !tbaa !56
  %9 = getelementptr inbounds nuw %struct.ZSTDMT_bufferPool_s, ptr %8, i32 0, i32 1
  %10 = load i64, ptr %9, align 8, !tbaa !128
  store i64 %10, ptr %4, align 8, !tbaa !45
  br label %11

11:                                               ; preds = %1
  br label %12

12:                                               ; preds = %11
  br label %13

13:                                               ; preds = %12
  %14 = load ptr, ptr %3, align 8, !tbaa !56
  %15 = getelementptr inbounds nuw %struct.ZSTDMT_bufferPool_s, ptr %14, i32 0, i32 0
  %16 = call i32 @pthread_mutex_lock(ptr noundef %15) #11
  %17 = load ptr, ptr %3, align 8, !tbaa !56
  %18 = getelementptr inbounds nuw %struct.ZSTDMT_bufferPool_s, ptr %17, i32 0, i32 3
  %19 = load i32, ptr %18, align 4, !tbaa !175
  %20 = icmp ne i32 %19, 0
  br i1 %20, label %21, label %70

21:                                               ; preds = %13
  %22 = load ptr, ptr %3, align 8, !tbaa !56
  %23 = getelementptr inbounds nuw %struct.ZSTDMT_bufferPool_s, ptr %22, i32 0, i32 5
  %24 = load ptr, ptr %23, align 8, !tbaa !57
  %25 = load ptr, ptr %3, align 8, !tbaa !56
  %26 = getelementptr inbounds nuw %struct.ZSTDMT_bufferPool_s, ptr %25, i32 0, i32 3
  %27 = load i32, ptr %26, align 4, !tbaa !175
  %28 = add i32 %27, -1
  store i32 %28, ptr %26, align 4, !tbaa !175
  %29 = zext i32 %28 to i64
  %30 = getelementptr inbounds nuw %struct.buffer_s, ptr %24, i64 %29
  call void @llvm.memcpy.p0.p0.i64(ptr align 8 %2, ptr align 8 %30, i64 16, i1 false), !tbaa.struct !53
  call void @llvm.lifetime.start.p0(i64 8, ptr %5) #11
  %31 = getelementptr inbounds nuw %struct.buffer_s, ptr %2, i32 0, i32 1
  %32 = load i64, ptr %31, align 8, !tbaa !74
  store i64 %32, ptr %5, align 8, !tbaa !45
  %33 = load ptr, ptr %3, align 8, !tbaa !56
  %34 = getelementptr inbounds nuw %struct.ZSTDMT_bufferPool_s, ptr %33, i32 0, i32 5
  %35 = load ptr, ptr %34, align 8, !tbaa !57
  %36 = load ptr, ptr %3, align 8, !tbaa !56
  %37 = getelementptr inbounds nuw %struct.ZSTDMT_bufferPool_s, ptr %36, i32 0, i32 3
  %38 = load i32, ptr %37, align 4, !tbaa !175
  %39 = zext i32 %38 to i64
  %40 = getelementptr inbounds nuw %struct.buffer_s, ptr %35, i64 %39
  call void @llvm.memcpy.p0.p0.i64(ptr align 8 %40, ptr align 8 @g_nullBuffer, i64 16, i1 false), !tbaa.struct !53
  %41 = load i64, ptr %5, align 8, !tbaa !45
  %42 = load i64, ptr %4, align 8, !tbaa !45
  %43 = icmp uge i64 %41, %42
  %44 = zext i1 %43 to i32
  %45 = load i64, ptr %5, align 8, !tbaa !45
  %46 = lshr i64 %45, 3
  %47 = load i64, ptr %4, align 8, !tbaa !45
  %48 = icmp ule i64 %46, %47
  %49 = zext i1 %48 to i32
  %50 = and i32 %44, %49
  %51 = icmp ne i32 %50, 0
  br i1 %51, label %52, label %59

52:                                               ; preds = %21
  br label %53

53:                                               ; preds = %52
  br label %54

54:                                               ; preds = %53
  br label %55

55:                                               ; preds = %54
  %56 = load ptr, ptr %3, align 8, !tbaa !56
  %57 = getelementptr inbounds nuw %struct.ZSTDMT_bufferPool_s, ptr %56, i32 0, i32 0
  %58 = call i32 @pthread_mutex_unlock(ptr noundef %57) #11
  store i32 1, ptr %6, align 4
  br label %67

59:                                               ; preds = %21
  br label %60

60:                                               ; preds = %59
  br label %61

61:                                               ; preds = %60
  br label %62

62:                                               ; preds = %61
  %63 = getelementptr inbounds nuw %struct.buffer_s, ptr %2, i32 0, i32 0
  %64 = load ptr, ptr %63, align 8, !tbaa !61
  %65 = load ptr, ptr %3, align 8, !tbaa !56
  %66 = getelementptr inbounds nuw %struct.ZSTDMT_bufferPool_s, ptr %65, i32 0, i32 4
  call void @ZSTD_customFree(ptr noundef %64, ptr noundef byval(%struct.ZSTD_customMem) align 8 %66)
  store i32 0, ptr %6, align 4
  br label %67

67:                                               ; preds = %62, %55
  call void @llvm.lifetime.end.p0(i64 8, ptr %5) #11
  %68 = load i32, ptr %6, align 4
  switch i32 %68, label %102 [
    i32 0, label %69
  ]

69:                                               ; preds = %67
  br label %70

70:                                               ; preds = %69, %13
  %71 = load ptr, ptr %3, align 8, !tbaa !56
  %72 = getelementptr inbounds nuw %struct.ZSTDMT_bufferPool_s, ptr %71, i32 0, i32 0
  %73 = call i32 @pthread_mutex_unlock(ptr noundef %72) #11
  br label %74

74:                                               ; preds = %70
  br label %75

75:                                               ; preds = %74
  br label %76

76:                                               ; preds = %75
  call void @llvm.lifetime.start.p0(i64 8, ptr %7) #11
  %77 = load i64, ptr %4, align 8, !tbaa !45
  %78 = load ptr, ptr %3, align 8, !tbaa !56
  %79 = getelementptr inbounds nuw %struct.ZSTDMT_bufferPool_s, ptr %78, i32 0, i32 4
  %80 = call ptr @ZSTD_customMalloc(i64 noundef %77, ptr noundef byval(%struct.ZSTD_customMem) align 8 %79)
  store ptr %80, ptr %7, align 8, !tbaa !16
  %81 = load ptr, ptr %7, align 8, !tbaa !16
  %82 = getelementptr inbounds nuw %struct.buffer_s, ptr %2, i32 0, i32 0
  store ptr %81, ptr %82, align 8, !tbaa !61
  %83 = load ptr, ptr %7, align 8, !tbaa !16
  %84 = icmp eq ptr %83, null
  br i1 %84, label %85, label %86

85:                                               ; preds = %76
  br label %88

86:                                               ; preds = %76
  %87 = load i64, ptr %4, align 8, !tbaa !45
  br label %88

88:                                               ; preds = %86, %85
  %89 = phi i64 [ 0, %85 ], [ %87, %86 ]
  %90 = getelementptr inbounds nuw %struct.buffer_s, ptr %2, i32 0, i32 1
  store i64 %89, ptr %90, align 8, !tbaa !74
  %91 = load ptr, ptr %7, align 8, !tbaa !16
  %92 = icmp eq ptr %91, null
  br i1 %92, label %93, label %97

93:                                               ; preds = %88
  br label %94

94:                                               ; preds = %93
  br label %95

95:                                               ; preds = %94
  br label %96

96:                                               ; preds = %95
  br label %101

97:                                               ; preds = %88
  br label %98

98:                                               ; preds = %97
  br label %99

99:                                               ; preds = %98
  br label %100

100:                                              ; preds = %99
  br label %101

101:                                              ; preds = %100, %96
  store i32 1, ptr %6, align 4
  call void @llvm.lifetime.end.p0(i64 8, ptr %7) #11
  br label %102

102:                                              ; preds = %101, %67
  call void @llvm.lifetime.end.p0(i64 8, ptr %4) #11
  %103 = load { ptr, i64 }, ptr %2, align 8
  ret { ptr, i64 } %103
}