; Function Attrs: nounwind uwtable
define internal fastcc { ptr, i64 } @ZSTDMT_getBuffer(ptr noundef %0) unnamed_addr #0 {
  %2 = getelementptr inbounds nuw i8, ptr %0, i64 40
  %3 = load i64, ptr %2, align 8, !tbaa !39
  %4 = tail call i32 @pthread_mutex_lock(ptr noundef %0) #14
  %5 = getelementptr inbounds nuw i8, ptr %0, i64 52
  %6 = load i32, ptr %5, align 4, !tbaa !52
  %.not = icmp eq i32 %6, 0
  br i1 %.not, label %ZSTD_customFree.exit.thread, label %7

7:                                                ; preds = %1
  %8 = getelementptr inbounds nuw i8, ptr %0, i64 80
  %9 = load ptr, ptr %8, align 8, !tbaa !54
  %10 = add i32 %6, -1
  store i32 %10, ptr %5, align 4, !tbaa !52
  %11 = zext i32 %10 to i64
  %12 = getelementptr inbounds nuw %struct.buffer_s, ptr %9, i64 %11
  %.sroa.0.0.copyload = load ptr, ptr %12, align 8, !tbaa !12
  %.sroa.4.0..sroa_idx = getelementptr inbounds nuw i8, ptr %12, i64 8
  %.sroa.4.0.copyload = load i64, ptr %.sroa.4.0..sroa_idx, align 8, !tbaa !55
  tail call void @llvm.memset.p0.i64(ptr noundef nonnull align 8 dereferenceable(16) %12, i8 0, i64 16, i1 false)
  %13 = icmp ult i64 %.sroa.4.0.copyload, %3
  %14 = lshr i64 %.sroa.4.0.copyload, 3
  %15 = icmp ugt i64 %14, %3
  %.not24 = or i1 %13, %15
  br i1 %.not24, label %16, label %ZSTD_customFree.exit

16:                                               ; preds = %7
  %17 = getelementptr i8, ptr %0, i64 64
  %.val = load ptr, ptr %17, align 8
  %18 = getelementptr i8, ptr %0, i64 72
  %.val25 = load ptr, ptr %18, align 8
  %.not.i = icmp eq ptr %.sroa.0.0.copyload, null
  br i1 %.not.i, label %ZSTD_customFree.exit.thread, label %19

19:                                               ; preds = %16
  %.not4.i = icmp eq ptr %.val, null
  br i1 %.not4.i, label %21, label %20

20:                                               ; preds = %19
  tail call void %.val(ptr noundef %.val25, ptr noundef nonnull %.sroa.0.0.copyload) #14
  br label %ZSTD_customFree.exit.thread

21:                                               ; preds = %19
  tail call void @free(ptr noundef nonnull %.sroa.0.0.copyload) #14
  br label %ZSTD_customFree.exit.thread

ZSTD_customFree.exit:                             ; preds = %7
  %22 = tail call i32 @pthread_mutex_unlock(ptr noundef nonnull %0) #14
  br label %32

ZSTD_customFree.exit.thread:                      ; preds = %16, %20, %21, %1
  %23 = tail call i32 @pthread_mutex_unlock(ptr noundef nonnull %0) #14
  %24 = getelementptr inbounds nuw i8, ptr %0, i64 56
  %.val26 = load ptr, ptr %24, align 8, !tbaa !7
  %.not.i28 = icmp eq ptr %.val26, null
  br i1 %.not.i28, label %28, label %25

25:                                               ; preds = %ZSTD_customFree.exit.thread
  %26 = getelementptr i8, ptr %0, i64 72
  %.val27 = load ptr, ptr %26, align 8
  %27 = tail call ptr %.val26(ptr noundef %.val27, i64 noundef %3) #14
  br label %ZSTD_customMalloc.exit

28:                                               ; preds = %ZSTD_customFree.exit.thread
  %29 = tail call noalias ptr @malloc(i64 noundef %3) #16
  br label %ZSTD_customMalloc.exit

ZSTD_customMalloc.exit:                           ; preds = %25, %28
  %.0.i = phi ptr [ %27, %25 ], [ %29, %28 ]
  %30 = icmp eq ptr %.0.i, null
  %31 = select i1 %30, i64 0, i64 %3
  br label %32

32:                                               ; preds = %ZSTD_customFree.exit, %ZSTD_customMalloc.exit
  %.sroa.0.0 = phi ptr [ %.0.i, %ZSTD_customMalloc.exit ], [ %.sroa.0.0.copyload, %ZSTD_customFree.exit ]
  %.sroa.4.0 = phi i64 [ %31, %ZSTD_customMalloc.exit ], [ %.sroa.4.0.copyload, %ZSTD_customFree.exit ]
  %.fca.0.insert = insertvalue { ptr, i64 } poison, ptr %.sroa.0.0, 0
  %.fca.1.insert = insertvalue { ptr, i64 } %.fca.0.insert, i64 %.sroa.4.0, 1
  ret { ptr, i64 } %.fca.1.insert
}